target datalayout = "e-m:e-p270:32:32-p271:32:32-p272:64:64-i64:64-i128:128-f80:128-n8:16:32:64-S128"
target triple = "x86_64-pc-linux-gnu"

%struct.H5_user_cb_state_t = type { %struct.H5E_user_cb_state_t }
%struct.H5E_user_cb_state_t = type { i32, %union.anon, ptr }
%union.anon = type { ptr }
%struct.H5VL_class_t = type { i32, i32, ptr, i32, i64, ptr, ptr, %struct.H5VL_info_class_t, %struct.H5VL_wrap_class_t, %struct.H5VL_attr_class_t, %struct.H5VL_dataset_class_t, %struct.H5VL_datatype_class_t, %struct.H5VL_file_class_t, %struct.H5VL_group_class_t, %struct.H5VL_link_class_t, %struct.H5VL_object_class_t, %struct.H5VL_introspect_class_t, %struct.H5VL_request_class_t, %struct.H5VL_blob_class_t, %struct.H5VL_token_class_t, ptr }
%struct.H5VL_info_class_t = type { i64, ptr, ptr, ptr, ptr, ptr }
%struct.H5VL_wrap_class_t = type { ptr, ptr, ptr, ptr, ptr }
%struct.H5VL_attr_class_t = type { ptr, ptr, ptr, ptr, ptr, ptr, ptr, ptr }
%struct.H5VL_dataset_class_t = type { ptr, ptr, ptr, ptr, ptr, ptr, ptr, ptr }
%struct.H5VL_datatype_class_t = type { ptr, ptr, ptr, ptr, ptr, ptr }
%struct.H5VL_file_class_t = type { ptr, ptr, ptr, ptr, ptr, ptr }
%struct.H5VL_group_class_t = type { ptr, ptr, ptr, ptr, ptr, ptr }
%struct.H5VL_link_class_t = type { ptr, ptr, ptr, ptr, ptr, ptr }
%struct.H5VL_object_class_t = type { ptr, ptr, ptr, ptr, ptr }
%struct.H5VL_introspect_class_t = type { ptr, ptr, ptr }
%struct.H5VL_request_class_t = type { ptr, ptr, ptr, ptr, ptr, ptr }
%struct.H5VL_blob_class_t = type { ptr, ptr, ptr, ptr }
%struct.H5VL_token_class_t = type { ptr, ptr, ptr }

@.str = private unnamed_addr constant [106 x i8] c"generated/home/dtcxzyw/WorkSpace/Projects/compilers/llvm-opt-benchmark/bench/hdf5/hdf5/src/H5VLcallback.c\00", align 1
@H5E_LIB_g = external global i64, align 8
@H5E_CANTSET_g = external global i64, align 8
@.str.2 = private unnamed_addr constant [37 x i8] c"preparation for user callback failed\00", align 1
@H5E_CANTRESTORE_g = external global i64, align 8
@H5E_VOL_g = external global i64, align 8
@H5VL_init_g = external global i8, align 1
@H5_libterm_g = external global i8, align 1
@H5E_CANTCOPY_g = external global i64, align 8
@H5E_UNSUPPORTED_g = external global i64, align 8
@.str.130 = private unnamed_addr constant [19 x i8] c"object copy failed\00", align 1
@__func__.H5VL__object_copy = private unnamed_addr constant [18 x i8] c"H5VL__object_copy\00", align 1
@.str.221 = private unnamed_addr constant [42 x i8] c"VOL connector has no 'object copy' method\00", align 1

; Function Attrs: nounwind uwtable
define internal i32 @H5VL__object_copy(ptr noundef %0, ptr noundef %1, ptr noundef %2, ptr noundef %3, ptr noundef %4, ptr noundef %5, ptr noundef %6, i64 noundef %7, i64 noundef %8, i64 noundef %9, ptr noundef %10) #0 {
  %12 = alloca i32, align 4
  %13 = alloca ptr, align 8
  %14 = alloca ptr, align 8
  %15 = alloca ptr, align 8
  %16 = alloca ptr, align 8
  %17 = alloca ptr, align 8
  %18 = alloca ptr, align 8
  %19 = alloca ptr, align 8
  %20 = alloca i64, align 8
  %21 = alloca i64, align 8
  %22 = alloca i64, align 8
  %23 = alloca ptr, align 8
  %24 = alloca i32, align 4
  %25 = alloca i8, align 1
  %26 = alloca %struct.H5_user_cb_state_t, align 8
  %27 = alloca i32, align 4
  store ptr %0, ptr %13, align 8, !tbaa !42
  store ptr %1, ptr %14, align 8, !tbaa !60
  store ptr %2, ptr %15, align 8, !tbaa !50
  store ptr %3, ptr %16, align 8, !tbaa !42
  store ptr %4, ptr %17, align 8, !tbaa !60
  store ptr %5, ptr %18, align 8, !tbaa !50
  store ptr %6, ptr %19, align 8, !tbaa !54
  store i64 %7, ptr %20, align 8, !tbaa !3
  store i64 %8, ptr %21, align 8, !tbaa !3
  store i64 %9, ptr %22, align 8, !tbaa !3
  store ptr %10, ptr %23, align 8, !tbaa !42
  call void @llvm.lifetime.start.p0(i64 4, ptr %24) #8
  store i32 0, ptr %24, align 4, !tbaa !7
  call void @llvm.lifetime.start.p0(i64 1, ptr %25) #8
  store i8 0, ptr %25, align 1, !tbaa !9
  %28 = load i8, ptr @H5VL_init_g, align 1, !tbaa !9, !range !14, !noundef !15
  %29 = trunc i8 %28 to i1
  br i1 %29, label %34, label %30

30:                                               ; preds = %11
  %31 = load i8, ptr @H5_libterm_g, align 1, !tbaa !9, !range !14, !noundef !15
  %32 = trunc i8 %31 to i1
  %33 = xor i1 %32, true
  br label %34

34:                                               ; preds = %30, %11
  %35 = phi i1 [ true, %11 ], [ %33, %30 ]
  %36 = xor i1 %35, true
  %37 = xor i1 %36, true
  %38 = zext i1 %37 to i32
  %39 = sext i32 %38 to i64
  %40 = call i64 @llvm.expect.i64(i64 %39, i64 1)
  %41 = icmp ne i64 %40, 0
  br i1 %41, label %42, label %153

42:                                               ; preds = %34
  %43 = load ptr, ptr %19, align 8, !tbaa !54
  %44 = getelementptr inbounds nuw %struct.H5VL_class_t, ptr %43, i32 0, i32 15
  %45 = getelementptr inbounds nuw %struct.H5VL_object_class_t, ptr %44, i32 0, i32 1
  %46 = load ptr, ptr %45, align 8, !tbaa !158
  %47 = icmp eq ptr null, %46
  br i1 %47, label %48, label %67

48:                                               ; preds = %42
  br label %49

49:                                               ; preds = %48
  br label %50

50:                                               ; preds = %49
  br label %51

51:                                               ; preds = %50
  %52 = load i64, ptr @H5E_VOL_g, align 8, !tbaa !3
  %53 = load i64, ptr @H5E_UNSUPPORTED_g, align 8, !tbaa !3
  %54 = call i32 (ptr, ptr, i32, i64, i64, ptr, ...) @H5E_printf_stack(ptr noundef @.str, ptr noundef @__func__.H5VL__object_copy, i32 noundef 5931, i64 noundef %52, i64 noundef %53, ptr noundef @.str.221)
  br label %55

55:                                               ; preds = %51
  br label %56

56:                                               ; preds = %55
  store i8 1, ptr %25, align 1, !tbaa !9
  %57 = load i8, ptr %25, align 1, !tbaa !9, !range !14, !noundef !15
  %58 = trunc i8 %57 to i1
  %59 = zext i1 %58 to i8
  store i8 %59, ptr %25, align 1, !tbaa !9
  br label %60

60:                                               ; preds = %56
  br label %61

61:                                               ; preds = %60
  br label %62

62:                                               ; preds = %61
  store i32 -1, ptr %24, align 4, !tbaa !7
  br label %152

63:                                               ; No predecessors!
  br label %64

64:                                               ; preds = %63
  br label %65

65:                                               ; preds = %64
  br label %66

66:                                               ; preds = %65
  br label %67

67:                                               ; preds = %66, %42
  call void @llvm.lifetime.start.p0(i64 24, ptr %26) #8
  %68 = call i32 @H5_user_cb_prepare(ptr noundef %26)
  %69 = icmp slt i32 %68, 0
  br i1 %69, label %70, label %89

70:                                               ; preds = %67
  br label %71

71:                                               ; preds = %70
  br label %72

72:                                               ; preds = %71
  br label %73

73:                                               ; preds = %72
  %74 = load i64, ptr @H5E_LIB_g, align 8, !tbaa !3
  %75 = load i64, ptr @H5E_CANTSET_g, align 8, !tbaa !3
  %76 = call i32 (ptr, ptr, i32, i64, i64, ptr, ...) @H5E_printf_stack(ptr noundef @.str, ptr noundef @__func__.H5VL__object_copy, i32 noundef 5934, i64 noundef %74, i64 noundef %75, ptr noundef @.str.2)
  br label %77

77:                                               ; preds = %73
  br label %78

78:                                               ; preds = %77
  store i8 1, ptr %25, align 1, !tbaa !9
  %79 = load i8, ptr %25, align 1, !tbaa !9, !range !14, !noundef !15
  %80 = trunc i8 %79 to i1
  %81 = zext i1 %80 to i8
  store i8 %81, ptr %25, align 1, !tbaa !9
  br label %82

82:                                               ; preds = %78
  br label %83

83:                                               ; preds = %82
  br label %84

84:                                               ; preds = %83
  store i32 -1, ptr %24, align 4, !tbaa !7
  store i32 10, ptr %27, align 4
  br label %127

85:                                               ; No predecessors!
  br label %86

86:                                               ; preds = %85
  br label %87

87:                                               ; preds = %86
  br label %88

88:                                               ; preds = %87
  br label %89

89:                                               ; preds = %88, %67
  %90 = load ptr, ptr %19, align 8, !tbaa !54
  %91 = getelementptr inbounds nuw %struct.H5VL_class_t, ptr %90, i32 0, i32 15
  %92 = getelementptr inbounds nuw %struct.H5VL_object_class_t, ptr %91, i32 0, i32 1
  %93 = load ptr, ptr %92, align 8, !tbaa !158
  %94 = load ptr, ptr %13, align 8, !tbaa !42
  %95 = load ptr, ptr %14, align 8, !tbaa !60
  %96 = load ptr, ptr %15, align 8, !tbaa !50
  %97 = load ptr, ptr %16, align 8, !tbaa !42
  %98 = load ptr, ptr %17, align 8, !tbaa !60
  %99 = load ptr, ptr %18, align 8, !tbaa !50
  %100 = load i64, ptr %20, align 8, !tbaa !3
  %101 = load i64, ptr %21, align 8, !tbaa !3
  %102 = load i64, ptr %22, align 8, !tbaa !3
  %103 = load ptr, ptr %23, align 8, !tbaa !42
  %104 = call i32 %93(ptr noundef %94, ptr noundef %95, ptr noundef %96, ptr noundef %97, ptr noundef %98, ptr noundef %99, i64 noundef %100, i64 noundef %101, i64 noundef %102, ptr noundef %103)
  store i32 %104, ptr %24, align 4, !tbaa !7
  %105 = call i32 @H5_user_cb_restore(ptr noundef %26)
  %106 = icmp slt i32 %105, 0
  br i1 %106, label %107, label %126

107:                                              ; preds = %89
  br label %108

108:                                              ; preds = %107
  br label %109

109:                                              ; preds = %108
  br label %110

110:                                              ; preds = %109
  %111 = load i64, ptr @H5E_LIB_g, align 8, !tbaa !3
  %112 = load i64, ptr @H5E_CANTRESTORE_g, align 8, !tbaa !3
  %113 = call i32 (ptr, ptr, i32, i64, i64, ptr, ...) @H5E_printf_stack(ptr noundef @.str, ptr noundef @__func__.H5VL__object_copy, i32 noundef 5940, i64 noundef %111, i64 noundef %112, ptr noundef @.str.2)
  br label %114

114:                                              ; preds = %110
  br label %115

115:                                              ; preds = %114
  store i8 1, ptr %25, align 1, !tbaa !9
  %116 = load i8, ptr %25, align 1, !tbaa !9, !range !14, !noundef !15
  %117 = trunc i8 %116 to i1
  %118 = zext i1 %117 to i8
  store i8 %118, ptr %25, align 1, !tbaa !9
  br label %119

119:                                              ; preds = %115
  br label %120

120:                                              ; preds = %119
  br label %121

121:                                              ; preds = %120
  store i32 -1, ptr %24, align 4, !tbaa !7
  store i32 10, ptr %27, align 4
  br label %127

122:                                              ; No predecessors!
  br label %123

123:                                              ; preds = %122
  br label %124

124:                                              ; preds = %123
  br label %125

125:                                              ; preds = %124
  br label %126

126:                                              ; preds = %125, %89
  store i32 0, ptr %27, align 4
  br label %127

127:                                              ; preds = %121, %84, %126
  call void @llvm.lifetime.end.p0(i64 24, ptr %26) #8
  %128 = load i32, ptr %27, align 4
  switch i32 %128, label %155 [
    i32 0, label %129
    i32 10, label %152
  ]

129:                                              ; preds = %127
  %130 = load i32, ptr %24, align 4, !tbaa !7
  %131 = icmp slt i32 %130, 0
  br i1 %131, label %132, label %151

132:                                              ; preds = %129
  br label %133

133:                                              ; preds = %132
  br label %134

134:                                              ; preds = %133
  br label %135

135:                                              ; preds = %134
  %136 = load i64, ptr @H5E_VOL_g, align 8, !tbaa !3
  %137 = load i64, ptr @H5E_CANTCOPY_g, align 8, !tbaa !3
  %138 = call i32 (ptr, ptr, i32, i64, i64, ptr, ...) @H5E_printf_stack(ptr noundef @.str, ptr noundef @__func__.H5VL__object_copy, i32 noundef 5942, i64 noundef %136, i64 noundef %137, ptr noundef @.str.130)
  br label %139

139:                                              ; preds = %135
  br label %140

140:                                              ; preds = %139
  store i8 1, ptr %25, align 1, !tbaa !9
  %141 = load i8, ptr %25, align 1, !tbaa !9, !range !14, !noundef !15
  %142 = trunc i8 %141 to i1
  %143 = zext i1 %142 to i8
  store i8 %143, ptr %25, align 1, !tbaa !9
  br label %144

144:                                              ; preds = %140
  br label %145

145:                                              ; preds = %144
  br label %146

146:                                              ; preds = %145
  store i32 -1, ptr %24, align 4, !tbaa !7
  br label %152

147:                                              ; No predecessors!
  br label %148

148:                                              ; preds = %147
  br label %149

149:                                              ; preds = %148
  br label %150

150:                                              ; preds = %149
  br label %151

151:                                              ; preds = %150, %129
  br label %152

152:                                              ; preds = %151, %127, %146, %62
  br label %153

153:                                              ; preds = %152, %34
  %154 = load i32, ptr %24, align 4, !tbaa !7
  store i32 %154, ptr %12, align 4
  store i32 1, ptr %27, align 4
  br label %155

155:                                              ; preds = %153, %127
  call void @llvm.lifetime.end.p0(i64 1, ptr %25) #8
  call void @llvm.lifetime.end.p0(i64 4, ptr %24) #8
  %156 = load i32, ptr %12, align 4
  ret i32 %156
}