; Function Attrs: nounwind uwtable
define internal fastcc range(i32 -1, -2147483648) i32 @H5VL__object_copy(ptr noundef %0, ptr noundef %1, ptr noundef %2, ptr noundef %3, ptr noundef %4, ptr noundef %5, ptr noundef readonly captures(none) %6, i64 noundef %7, i64 noundef %8, i64 noundef %9, ptr noundef %10) unnamed_addr #0 {
  %12 = alloca %struct.H5_user_cb_state_t, align 8
  %13 = load i8, ptr @H5VL_init_g, align 1, !tbaa !33, !range !35, !noundef !36
  %14 = trunc nuw i8 %13 to i1
  %15 = load i8, ptr @H5_libterm_g, align 1, !range !35
  %16 = trunc nuw i8 %15 to i1
  %17 = xor i1 %16, true
  %18 = select i1 %14, i1 true, i1 %17
  br i1 %18, label %19, label %44, !prof !37

19:                                               ; preds = %11
  %20 = getelementptr inbounds nuw i8, ptr %6, i64 464
  %21 = load ptr, ptr %20, align 8, !tbaa !120
  %22 = icmp eq ptr %21, null
  br i1 %22, label %23, label %27

23:                                               ; preds = %19
  %24 = load i64, ptr @H5E_VOL_g, align 8, !tbaa !3
  %25 = load i64, ptr @H5E_UNSUPPORTED_g, align 8, !tbaa !3
  %26 = tail call i32 (ptr, ptr, i32, i64, i64, ptr, ...) @H5E_printf_stack(ptr noundef nonnull @.str, ptr noundef nonnull @__func__.H5VL__object_copy, i32 noundef 5931, i64 noundef %24, i64 noundef %25, ptr noundef nonnull @.str.221) #7
  br label %44

27:                                               ; preds = %19
  call void @llvm.lifetime.start.p0(i64 24, ptr nonnull %12) #7
  %28 = call i32 @H5_user_cb_prepare(ptr noundef nonnull %12) #7
  %29 = icmp slt i32 %28, 0
  br i1 %29, label %.thread, label %30

30:                                               ; preds = %27
  %31 = load ptr, ptr %20, align 8, !tbaa !120
  %32 = call i32 %31(ptr noundef %0, ptr noundef %1, ptr noundef %2, ptr noundef %3, ptr noundef %4, ptr noundef %5, i64 noundef %7, i64 noundef %8, i64 noundef %9, ptr noundef %10) #7
  %33 = call i32 @H5_user_cb_restore(ptr noundef nonnull %12) #7
  %34 = icmp slt i32 %33, 0
  br i1 %34, label %.thread, label %38

.thread:                                          ; preds = %30, %27
  %H5E_CANTSET_g.sink = phi ptr [ @H5E_CANTSET_g, %27 ], [ @H5E_CANTRESTORE_g, %30 ]
  %.sink = phi i32 [ 5934, %27 ], [ 5940, %30 ]
  %35 = load i64, ptr @H5E_LIB_g, align 8, !tbaa !3
  %36 = load i64, ptr %H5E_CANTSET_g.sink, align 8, !tbaa !3
  %37 = call i32 (ptr, ptr, i32, i64, i64, ptr, ...) @H5E_printf_stack(ptr noundef nonnull @.str, ptr noundef nonnull @__func__.H5VL__object_copy, i32 noundef %.sink, i64 noundef %35, i64 noundef %36, ptr noundef nonnull @.str.2) #7
  call void @llvm.lifetime.end.p0(i64 24, ptr nonnull %12) #7
  br label %44

38:                                               ; preds = %30
  call void @llvm.lifetime.end.p0(i64 24, ptr nonnull %12) #7
  %39 = icmp slt i32 %32, 0
  br i1 %39, label %40, label %44

40:                                               ; preds = %38
  %41 = load i64, ptr @H5E_VOL_g, align 8, !tbaa !3
  %42 = load i64, ptr @H5E_CANTCOPY_g, align 8, !tbaa !3
  %43 = call i32 (ptr, ptr, i32, i64, i64, ptr, ...) @H5E_printf_stack(ptr noundef nonnull @.str, ptr noundef nonnull @__func__.H5VL__object_copy, i32 noundef 5942, i64 noundef %41, i64 noundef %42, ptr noundef nonnull @.str.130) #7
  br label %44

44:                                               ; preds = %.thread, %38, %11, %40, %23
  %.020 = phi i32 [ -1, %23 ], [ %32, %38 ], [ -1, %40 ], [ 0, %11 ], [ -1, %.thread ]
  ret i32 %.020
}